target datalayout = "e-m:e-p270:32:32-p271:32:32-p272:64:64-i64:64-i128:128-f80:128-n8:16:32:64-S128"
target triple = "x86_64-pc-linux-gnu"

%struct.cl_fmap = type { ptr, ptr, ptr, i64, i64, i64, i64, i8, i8, i8, i64, i64, i64, i64, ptr, ptr, ptr, ptr, ptr, ptr, ptr, i8, [16 x i8], i8, [20 x i8], i8, [32 x i8], ptr, ptr }

; Function Attrs: nounwind uwtable
define internal void @funmap(ptr noundef %0) #0 {
  %2 = alloca ptr, align 8
  store ptr %0, ptr %2, align 8
  %3 = load ptr, ptr %2, align 8
  %4 = getelementptr inbounds %struct.cl_fmap, ptr %3, i32 0, i32 14
  %5 = load ptr, ptr %4, align 8
  %6 = load ptr, ptr %2, align 8
  call void %5(ptr noundef %6)
  ret void
}

; Function Attrs: nounwind uwtable
define i32 @cli_magic_scan_buff(ptr noundef %0, i64 noundef %1, ptr noundef %2, ptr noundef %3, i32 noundef %4) #0 {
  %6 = alloca i32, align 4
  %7 = alloca ptr, align 8
  %8 = alloca i64, align 8
  %9 = alloca ptr, align 8
  %10 = alloca ptr, align 8
  %11 = alloca i32, align 4
  %12 = alloca i32, align 4
  %13 = alloca ptr, align 8
  store ptr %0, ptr %7, align 8
  store i64 %1, ptr %8, align 8
  store ptr %2, ptr %9, align 8
  store ptr %3, ptr %10, align 8
  store i32 %4, ptr %11, align 4
  store ptr null, ptr %13, align 8
  %14 = load ptr, ptr %7, align 8
  %15 = load i64, ptr %8, align 8
  %16 = load ptr, ptr %10, align 8
  %17 = call ptr @fmap_open_memory(ptr noundef %14, i64 noundef %15, ptr noundef %16)
  store ptr %17, ptr %13, align 8
  %18 = load ptr, ptr %13, align 8
  %19 = icmp ne ptr %18, null
  br i1 %19, label %21, label %20

20:                                               ; preds = %5
  store i32 19, ptr %6, align 4
  br label %30

21:                                               ; preds = %5
  %22 = load ptr, ptr %13, align 8
  %23 = load i64, ptr %8, align 8
  %24 = load ptr, ptr %9, align 8
  %25 = load ptr, ptr %10, align 8
  %26 = load i32, ptr %11, align 4
  %27 = call i32 @cli_magic_scan_nested_fmap_type(ptr noundef %22, i64 noundef 0, i64 noundef %23, ptr noundef %24, i32 noundef 0, ptr noundef %25, i32 noundef %26)
  store i32 %27, ptr %12, align 4
  %28 = load ptr, ptr %13, align 8
  call void @funmap(ptr noundef %28)
  %29 = load i32, ptr %12, align 4
  store i32 %29, ptr %6, align 4
  br label %30

30:                                               ; preds = %21, %20
  %31 = load i32, ptr %6, align 4
  ret i32 %31
}