; Function Attrs: nounwind uwtable
define i32 @cli_magic_scan_buff(ptr noundef %0, i64 noundef %1, ptr noundef %2, ptr noundef %3, i32 noundef %4) local_unnamed_addr #0 {
  %6 = tail call ptr @fmap_open_memory(ptr noundef %0, i64 noundef %1, ptr noundef %3) #16
  %.not = icmp eq ptr %6, null
  br i1 %.not, label %11, label %7

7:                                                ; preds = %5
  %8 = tail call i32 @cli_magic_scan_nested_fmap_type(ptr noundef nonnull %6, i64 noundef 0, i64 noundef %1, ptr noundef %2, i32 noundef 0, ptr noundef %3, i32 noundef %4)
  %9 = getelementptr inbounds nuw i8, ptr %6, i64 96
  %10 = load ptr, ptr %9, align 8
  tail call void %10(ptr noundef nonnull %6) #16
  br label %11

11:                                               ; preds = %5, %7
  %.0 = phi i32 [ %8, %7 ], [ 19, %5 ]
  ret i32 %.0
}